target datalayout = "e-m:e-p270:32:32-p271:32:32-p272:64:64-i64:64-i128:128-f80:128-n8:16:32:64-S128"
target triple = "x86_64-pc-linux-gnu"

@.str = private unnamed_addr constant [32 x i8] c"../openssl/ssl/ssl_rsa_legacy.c\00", align 1
@__func__.SSL_CTX_use_RSAPrivateKey = private unnamed_addr constant [26 x i8] c"SSL_CTX_use_RSAPrivateKey\00", align 1

; Function Attrs: nounwind uwtable
define i32 @SSL_CTX_use_RSAPrivateKey(ptr noundef %0, ptr noundef %1) #0 {
  %3 = alloca i32, align 4
  %4 = alloca ptr, align 8
  %5 = alloca ptr, align 8
  %6 = alloca i32, align 4
  %7 = alloca ptr, align 8
  %8 = alloca i32, align 4
  store ptr %0, ptr %4, align 8, !tbaa !20
  store ptr %1, ptr %5, align 8, !tbaa !8
  call void @llvm.lifetime.start.p0(i64 4, ptr %6) #3
  call void @llvm.lifetime.start.p0(i64 8, ptr %7) #3
  %9 = load ptr, ptr %5, align 8, !tbaa !8
  %10 = icmp eq ptr %9, null
  br i1 %10, label %11, label %12

11:                                               ; preds = %2
  call void @ERR_new()
  call void @ERR_set_debug(ptr noundef @.str, i32 noundef 110, ptr noundef @__func__.SSL_CTX_use_RSAPrivateKey)
  call void (i32, i32, ptr, ...) @ERR_set_error(i32 noundef 20, i32 noundef 786690, ptr noundef null)
  store i32 0, ptr %3, align 4
  store i32 1, ptr %8, align 4
  br label %32

12:                                               ; preds = %2
  %13 = call ptr @EVP_PKEY_new()
  store ptr %13, ptr %7, align 8, !tbaa !10
  %14 = icmp eq ptr %13, null
  br i1 %14, label %15, label %16

15:                                               ; preds = %12
  call void @ERR_new()
  call void @ERR_set_debug(ptr noundef @.str, i32 noundef 114, ptr noundef @__func__.SSL_CTX_use_RSAPrivateKey)
  call void (i32, i32, ptr, ...) @ERR_set_error(i32 noundef 20, i32 noundef 524294, ptr noundef null)
  store i32 0, ptr %3, align 4
  store i32 1, ptr %8, align 4
  br label %32

16:                                               ; preds = %12
  %17 = load ptr, ptr %5, align 8, !tbaa !8
  %18 = call i32 @RSA_up_ref(ptr noundef %17)
  %19 = load ptr, ptr %7, align 8, !tbaa !10
  %20 = load ptr, ptr %5, align 8, !tbaa !8
  %21 = call i32 @EVP_PKEY_assign(ptr noundef %19, i32 noundef 6, ptr noundef %20)
  %22 = icmp sle i32 %21, 0
  br i1 %22, label %23, label %26

23:                                               ; preds = %16
  %24 = load ptr, ptr %5, align 8, !tbaa !8
  call void @RSA_free(ptr noundef %24)
  %25 = load ptr, ptr %7, align 8, !tbaa !10
  call void @EVP_PKEY_free(ptr noundef %25)
  store i32 0, ptr %3, align 4
  store i32 1, ptr %8, align 4
  br label %32

26:                                               ; preds = %16
  %27 = load ptr, ptr %4, align 8, !tbaa !20
  %28 = load ptr, ptr %7, align 8, !tbaa !10
  %29 = call i32 @SSL_CTX_use_PrivateKey(ptr noundef %27, ptr noundef %28)
  store i32 %29, ptr %6, align 4, !tbaa !12
  %30 = load ptr, ptr %7, align 8, !tbaa !10
  call void @EVP_PKEY_free(ptr noundef %30)
  %31 = load i32, ptr %6, align 4, !tbaa !12
  store i32 %31, ptr %3, align 4
  store i32 1, ptr %8, align 4
  br label %32

32:                                               ; preds = %26, %23, %15, %11
  call void @llvm.lifetime.end.p0(i64 8, ptr %7) #3
  call void @llvm.lifetime.end.p0(i64 4, ptr %6) #3
  %33 = load i32, ptr %3, align 4
  ret i32 %33
}